target datalayout = "e-m:e-p270:32:32-p271:32:32-p272:64:64-i64:64-i128:128-f80:128-n8:16:32:64-S128"
target triple = "x86_64-pc-linux-gnu"

%struct.object_id = type { [32 x i8], i32 }

@the_repository = external global ptr, align 8

; Function Attrs: nounwind uwtable
define dso_local i32 @repo_parse_commit_gently(ptr noundef %0, ptr noundef %1, i32 noundef %2) #0 {
  %4 = alloca ptr, align 8
  %5 = alloca ptr, align 8
  %6 = alloca i32, align 4
  store ptr %0, ptr %4, align 8, !tbaa !4
  store ptr %1, ptr %5, align 8, !tbaa !17
  store i32 %2, ptr %6, align 4, !tbaa !11
  %7 = load ptr, ptr %4, align 8, !tbaa !4
  %8 = load ptr, ptr %5, align 8, !tbaa !17
  %9 = load i32, ptr %6, align 4, !tbaa !11
  %10 = call i32 @repo_parse_commit_internal(ptr noundef %7, ptr noundef %8, i32 noundef %9, i32 noundef 1)
  ret i32 %10
}

; Function Attrs: inlinehint nounwind uwtable
define internal i32 @repo_parse_commit(ptr noundef %0, ptr noundef %1) #4 {
  %3 = alloca ptr, align 8
  %4 = alloca ptr, align 8
  store ptr %0, ptr %3, align 8, !tbaa !4
  store ptr %1, ptr %4, align 8, !tbaa !17
  %5 = load ptr, ptr %3, align 8, !tbaa !4
  %6 = load ptr, ptr %4, align 8, !tbaa !17
  %7 = call i32 @repo_parse_commit_gently(ptr noundef %5, ptr noundef %6, i32 noundef 0)
  ret i32 %7
}

; Function Attrs: nounwind uwtable
define dso_local ptr @lookup_commit_reference_gently(ptr noundef %0, ptr noundef %1, i32 noundef %2) #0 {
  %4 = alloca ptr, align 8
  %5 = alloca ptr, align 8
  %6 = alloca ptr, align 8
  %7 = alloca i32, align 4
  %8 = alloca ptr, align 8
  %9 = alloca i32, align 4
  store ptr %0, ptr %5, align 8, !tbaa !4
  store ptr %1, ptr %6, align 8, !tbaa !9
  store i32 %2, ptr %7, align 4, !tbaa !11
  call void @llvm.lifetime.start.p0(i64 8, ptr %8) #11
  %10 = load ptr, ptr %5, align 8, !tbaa !4
  %11 = load ptr, ptr %5, align 8, !tbaa !4
  %12 = load ptr, ptr %6, align 8, !tbaa !9
  %13 = call ptr @parse_object(ptr noundef %11, ptr noundef %12)
  %14 = call ptr @deref_tag(ptr noundef %10, ptr noundef %13, ptr noundef null, i32 noundef 0)
  store ptr %14, ptr %8, align 8, !tbaa !13
  %15 = load ptr, ptr %8, align 8, !tbaa !13
  %16 = icmp ne ptr %15, null
  br i1 %16, label %18, label %17

17:                                               ; preds = %3
  store ptr null, ptr %4, align 8
  store i32 1, ptr %9, align 4
  br label %22

18:                                               ; preds = %3
  %19 = load ptr, ptr %8, align 8, !tbaa !13
  %20 = load i32, ptr %7, align 4, !tbaa !11
  %21 = call ptr @object_as_type(ptr noundef %19, i32 noundef 1, i32 noundef %20)
  store ptr %21, ptr %4, align 8
  store i32 1, ptr %9, align 4
  br label %22

22:                                               ; preds = %18, %17
  call void @llvm.lifetime.end.p0(i64 8, ptr %8) #11
  %23 = load ptr, ptr %4, align 8
  ret ptr %23
}

; Function Attrs: nounwind uwtable
define dso_local ptr @lookup_commit_reference_by_name_gently(ptr noundef %0, i32 noundef %1) #0 {
  %3 = alloca ptr, align 8
  %4 = alloca ptr, align 8
  %5 = alloca i32, align 4
  %6 = alloca %struct.object_id, align 4
  %7 = alloca ptr, align 8
  %8 = alloca i32, align 4
  store ptr %0, ptr %4, align 8, !tbaa !15
  store i32 %1, ptr %5, align 4, !tbaa !11
  call void @llvm.lifetime.start.p0(i64 36, ptr %6) #11
  call void @llvm.lifetime.start.p0(i64 8, ptr %7) #11
  %9 = load ptr, ptr @the_repository, align 8, !tbaa !4
  %10 = load ptr, ptr %4, align 8, !tbaa !15
  %11 = call i32 @repo_get_oid_committish(ptr noundef %9, ptr noundef %10, ptr noundef %6)
  %12 = icmp ne i32 %11, 0
  br i1 %12, label %13, label %14

13:                                               ; preds = %2
  store ptr null, ptr %3, align 8
  store i32 1, ptr %8, align 4
  br label %25

14:                                               ; preds = %2
  %15 = load ptr, ptr @the_repository, align 8, !tbaa !4
  %16 = load i32, ptr %5, align 4, !tbaa !11
  %17 = call ptr @lookup_commit_reference_gently(ptr noundef %15, ptr noundef %6, i32 noundef %16)
  store ptr %17, ptr %7, align 8, !tbaa !17
  %18 = load ptr, ptr @the_repository, align 8, !tbaa !4
  %19 = load ptr, ptr %7, align 8, !tbaa !17
  %20 = call i32 @repo_parse_commit(ptr noundef %18, ptr noundef %19)
  %21 = icmp ne i32 %20, 0
  br i1 %21, label %22, label %23

22:                                               ; preds = %14
  store ptr null, ptr %3, align 8
  store i32 1, ptr %8, align 4
  br label %25

23:                                               ; preds = %14
  %24 = load ptr, ptr %7, align 8, !tbaa !17
  store ptr %24, ptr %3, align 8
  store i32 1, ptr %8, align 4
  br label %25

25:                                               ; preds = %23, %22, %13
  call void @llvm.lifetime.end.p0(i64 8, ptr %7) #11
  call void @llvm.lifetime.end.p0(i64 36, ptr %6) #11
  %26 = load ptr, ptr %3, align 8
  ret ptr %26
}