; Function Attrs: nounwind uwtable
define dso_local ptr @lookup_commit_reference_by_name_gently(ptr noundef %0, i32 noundef %1) local_unnamed_addr #0 {
  %3 = alloca %struct.object_id, align 4
  call void @llvm.lifetime.start.p0(i64 36, ptr nonnull %3) #24
  %4 = load ptr, ptr @the_repository, align 8, !tbaa !4
  %5 = call i32 @repo_get_oid_committish(ptr noundef %4, ptr noundef %0, ptr noundef nonnull %3) #24
  %.not = icmp eq i32 %5, 0
  br i1 %.not, label %6, label %14

6:                                                ; preds = %2
  %7 = load ptr, ptr @the_repository, align 8, !tbaa !4
  %8 = call ptr @parse_object(ptr noundef %7, ptr noundef nonnull %3) #24
  %9 = call ptr @deref_tag(ptr noundef %7, ptr noundef %8, ptr noundef null, i32 noundef 0) #24
  %.not.i = icmp eq ptr %9, null
  br i1 %.not.i, label %lookup_commit_reference_gently.exit, label %10

10:                                               ; preds = %6
  %11 = call ptr @object_as_type(ptr noundef nonnull %9, i32 noundef 1, i32 noundef %1) #24
  br label %lookup_commit_reference_gently.exit

lookup_commit_reference_gently.exit:              ; preds = %6, %10
  %.0.i = phi ptr [ %11, %10 ], [ null, %6 ]
  %12 = load ptr, ptr @the_repository, align 8, !tbaa !4
  %13 = call range(i32 -1, 1) i32 @repo_parse_commit_internal(ptr noundef %12, ptr noundef %.0.i, i32 noundef 0, i32 noundef 1)
  %.not4 = icmp eq i32 %13, 0
  %. = select i1 %.not4, ptr %.0.i, ptr null
  br label %14

14:                                               ; preds = %lookup_commit_reference_gently.exit, %2
  %.0 = phi ptr [ null, %2 ], [ %., %lookup_commit_reference_gently.exit ]
  call void @llvm.lifetime.end.p0(i64 36, ptr nonnull %3) #24
  ret ptr %.0
}